; Function Attrs: nounwind uwtable
define void @messageDestroy(ptr noundef %0) local_unnamed_addr #2 {
  %2 = icmp eq ptr %0, null
  br i1 %2, label %4, label %3

3:                                                ; preds = %1
  tail call void @messageReset(ptr noundef nonnull %0)
  tail call void @free(ptr noundef nonnull %0) #21
  br label %4

4:                                                ; preds = %1, %3
  ret void
}